; ModuleID = '36/1580.c'
source_filename = "36/1580.c"
target datalayout = "e-m:e-p270:32:32-p271:32:32-p272:64:64-i64:64-f80:128-n8:16:32:64-S128"
target triple = "x86_64-pc-linux-gnu"

@.str = private unnamed_addr constant [6 x i8] c"%s %s\00", align 1
@.str.1 = private unnamed_addr constant [4 x i8] c"NO\0A\00", align 1
@.str.2 = private unnamed_addr constant [4 x i8] c"YES\00", align 1
@.str.3 = private unnamed_addr constant [3 x i8] c"NO\00", align 1
@.str.4 = private unnamed_addr constant [2 x i8] c"\0A\00", align 1

; Function Attrs: noinline nounwind uwtable
define dso_local i32 @main() #0 {
  %1 = alloca i32, align 4
  %2 = alloca i32, align 4
  %3 = alloca [100 x i8], align 16
  %4 = alloca [100 x i8], align 16
  %5 = alloca i32, align 4
  %6 = alloca i32, align 4
  %7 = alloca i32, align 4
  %8 = alloca i32, align 4
  %9 = alloca i32, align 4
  store i32 0, i32* %1, align 4
  store i32 1, i32* %2, align 4
  %10 = getelementptr inbounds [100 x i8], [100 x i8]* %3, i64 0, i64 0
  %11 = getelementptr inbounds [100 x i8], [100 x i8]* %4, i64 0, i64 0
  %12 = call i32 (i8*, ...) @__isoc99_scanf(i8* getelementptr inbounds ([6 x i8], [6 x i8]* @.str, i64 0, i64 0), i8* %10, i8* %11)
  %13 = getelementptr inbounds [100 x i8], [100 x i8]* %3, i64 0, i64 0
  %14 = call i64 @strlen(i8* %13) #3
  %15 = trunc i64 %14 to i32
  store i32 %15, i32* %5, align 4
  %16 = getelementptr inbounds [100 x i8], [100 x i8]* %4, i64 0, i64 0
  %17 = call i64 @strlen(i8* %16) #3
  %18 = trunc i64 %17 to i32
  store i32 %18, i32* %6, align 4
  %19 = load i32, i32* %5, align 4
  %20 = load i32, i32* %6, align 4
  %21 = icmp ne i32 %19, %20
  br i1 %21, label %22, label %24

22:                                               ; preds = %0
  %23 = call i32 (i8*, ...) @printf(i8* getelementptr inbounds ([4 x i8], [4 x i8]* @.str.1, i64 0, i64 0))
  br label %87

24:                                               ; preds = %0
  store i32 0, i32* %7, align 4
  br label %25

25:                                               ; preds = %74, %24
  %26 = load i32, i32* %7, align 4
  %27 = load i32, i32* %5, align 4
  %28 = icmp ult i32 %26, %27
  br i1 %28, label %29, label %77

29:                                               ; preds = %25
  store i32 0, i32* %8, align 4
  br label %30

30:                                               ; preds = %70, %29
  %31 = load i32, i32* %8, align 4
  %32 = zext i32 %31 to i64
  %33 = getelementptr inbounds [100 x i8], [100 x i8]* %4, i64 0, i64 0
  %34 = call i64 @strlen(i8* %33) #3
  %35 = icmp ult i64 %32, %34
  br i1 %35, label %36, label %73

36:                                               ; preds = %30
  %37 = load i32, i32* %8, align 4
  %38 = zext i32 %37 to i64
  %39 = getelementptr inbounds [100 x i8], [100 x i8]* %4, i64 0, i64 %38
  %40 = load i8, i8* %39, align 1
  %41 = sext i8 %40 to i32
  %42 = load i32, i32* %7, align 4
  %43 = zext i32 %42 to i64
  %44 = getelementptr inbounds [100 x i8], [100 x i8]* %3, i64 0, i64 %43
  %45 = load i8, i8* %44, align 1
  %46 = sext i8 %45 to i32
  %47 = icmp eq i32 %41, %46
  br i1 %47, label %48, label %69

48:                                               ; preds = %36
  %49 = load i32, i32* %8, align 4
  store i32 %49, i32* %9, align 4
  br label %50

50:                                               ; preds = %65, %48
  %51 = load i32, i32* %9, align 4
  %52 = zext i32 %51 to i64
  %53 = getelementptr inbounds [100 x i8], [100 x i8]* %4, i64 0, i64 0
  %54 = call i64 @strlen(i8* %53) #3
  %55 = icmp ule i64 %52, %54
  br i1 %55, label %56, label %68

56:                                               ; preds = %50
  %57 = load i32, i32* %9, align 4
  %58 = add i32 %57, 1
  %59 = zext i32 %58 to i64
  %60 = getelementptr inbounds [100 x i8], [100 x i8]* %4, i64 0, i64 %59
  %61 = load i8, i8* %60, align 1
  %62 = load i32, i32* %9, align 4
  %63 = zext i32 %62 to i64
  %64 = getelementptr inbounds [100 x i8], [100 x i8]* %4, i64 0, i64 %63
  store i8 %61, i8* %64, align 1
  br label %65

65:                                               ; preds = %56
  %66 = load i32, i32* %9, align 4
  %67 = add i32 %66, 1
  store i32 %67, i32* %9, align 4
  br label %50

68:                                               ; preds = %50
  br label %69

69:                                               ; preds = %68, %36
  br label %70

70:                                               ; preds = %69
  %71 = load i32, i32* %8, align 4
  %72 = add i32 %71, 1
  store i32 %72, i32* %8, align 4
  br label %30

73:                                               ; preds = %30
  br label %74

74:                                               ; preds = %73
  %75 = load i32, i32* %7, align 4
  %76 = add i32 %75, 1
  store i32 %76, i32* %7, align 4
  br label %25

77:                                               ; preds = %25
  %78 = getelementptr inbounds [100 x i8], [100 x i8]* %4, i64 0, i64 0
  %79 = call i64 @strlen(i8* %78) #3
  %80 = icmp ne i64 %79, 0
  br i1 %80, label %83, label %81

81:                                               ; preds = %77
  %82 = call i32 (i8*, ...) @printf(i8* getelementptr inbounds ([4 x i8], [4 x i8]* @.str.2, i64 0, i64 0))
  br label %85

83:                                               ; preds = %77
  %84 = call i32 (i8*, ...) @printf(i8* getelementptr inbounds ([3 x i8], [3 x i8]* @.str.3, i64 0, i64 0))
  br label %85

85:                                               ; preds = %83, %81
  %86 = call i32 (i8*, ...) @printf(i8* getelementptr inbounds ([2 x i8], [2 x i8]* @.str.4, i64 0, i64 0))
  br label %87

87:                                               ; preds = %85, %22
  ret i32 0
}

declare dso_local i32 @__isoc99_scanf(i8*, ...) #1

; Function Attrs: nounwind readonly
declare dso_local i64 @strlen(i8*) #2

declare dso_local i32 @printf(i8*, ...) #1


!llvm.module.flags = !{!0}
!llvm.ident = !{!1}

!0 = !{i32 1, !"wchar_size", i32 4}
!1 = !{!"clang version 10.0.0-4ubuntu1 "}
